X.509 Certificate Information:
	Version: 3
	Serial Number (hex): 01
	Issuer: CN=TLS Pool Test X.509 Server,OU=Test Servers,O=ARPA2 Laboratories,L=Internet,ST=Freedom
	Validity:
		Not Before: Tue Jul 12 21:02:21 UTC 2016
		Not After: Tue Sep 20 21:02:21 UTC 2016
	Subject: CN=TLS Pool Test X.509 Server,OU=Test Servers,O=ARPA2 Laboratories,L=Internet,ST=Freedom
	Subject Public Key Algorithm: RSA
	Algorithm Security Level: Legacy (2000 bits)
		Modulus (bits 2000):
			00:c1:83:26:78:7e:62:b9:d8:d9:fa:e0:fd:ed:9e:6d
			fc:94:95:04:13:56:db:43:99:2e:34:ef:ec:d0:03:6b
			37:bd:6e:4e:bd:53:57:a1:83:35:00:e1:e2:a8:5f:50
			23:3d:b0:e1:d1:74:dc:ce:a6:ac:fe:3d:39:22:46:d1
			ec:61:e7:da:4e:b3:a3:fb:e5:55:99:bc:8c:94:de:9e
			b2:b1:d3:42:e7:22:88:b4:d2:27:ce:39:2d:c0:2b:7e
			00:90:b6:87:5a:ec:0c:7f:11:e3:89:46:eb:84:8f:57
			12:88:98:77:7b:cc:39:cd:ca:60:0a:d0:1c:ab:70:5d
			df:b1:21:de:e4:50:6d:69:a1:b0:ad:50:b3:7d:dc:2c
			f9:a9:b8:c1:af:ca:78:dc:5e:77:a2:f4:ed:7a:f2:c1
			02:02:b4:be:6c:b5:eb:11:ae:ef:e3:1a:72:18:c9:36
			df:e2:f5:b9:5e:7d:7f:ef:5c:47:69:be:e6:a8:f5:fb
			99:97:27:f2:a1:d7:04:ef:39:e1:8f:f5:8f:2d:de:bb
			9b:0c:5f:3a:f6:c8:28:e6:90:cd:05:58:2b:2a:81:cd
			95:2c:47:38:8b:29:a8:12:0a:b4:dc:92:28:7e:51:f7
			39:66:e5:b8:26:c0:37:2e:55:c7:f3
		Exponent (bits 24):
			01:00:01
	Extensions:
		Basic Constraints (critical):
			Certificate Authority (CA): FALSE
		Subject Alternative Name (not critical):
			RFC822Name: testsrv@tlspool.arpa2.lab
		Key Usage (critical):
			Digital signature.
			Key encipherment.
		Subject Key Identifier (not critical):
			61a2322e0d8ee052349e140fb6b7e4c392871f85
	Signature Algorithm: RSA-SHA256
	Signature:
		54:7e:3b:be:11:58:0b:d8:36:2c:74:d4:12:76:36:3f
		af:6e:48:93:16:2a:e4:c6:8a:b2:d2:ca:ae:75:b1:81
		21:11:33:91:e4:b1:4a:63:79:b2:60:31:20:ef:39:d3
		69:72:46:73:2e:dd:a8:94:16:53:0d:50:84:c2:2f:23
		15:80:d2:f4:87:76:34:87:e2:68:f4:97:01:b9:ee:4c
		02:05:8d:63:f9:2b:a6:5b:bc:22:9d:f3:55:7f:34:f8
		6e:5f:d3:1a:af:99:53:e5:93:14:5f:92:a7:0c:8d:17
		a6:cb:25:dc:69:0d:fd:de:b3:9f:6e:c3:e0:82:d0:49
		41:d9:63:5e:aa:d3:b0:95:f9:08:78:95:6e:13:4c:3d
		21:5c:f0:f1:c4:16:4a:01:64:f9:d0:b7:62:f3:d4:dc
		06:1c:1d:cb:cc:5a:79:d3:14:2f:b7:c0:43:69:39:96
		71:d6:6f:8f:32:48:03:d8:eb:94:f4:49:95:cb:8d:59
		aa:56:8e:d2:df:2d:8b:49:22:9e:7b:c6:1c:9b:d0:88
		03:a4:c7:5d:b4:76:fa:cd:d9:f5:59:d3:63:5a:4c:21
		4f:5e:fe:a1:65:c2:c7:25:82:e0:12:5d:13:e1:d6:84
		63:fe:b2:09:7a:3a:4b:d2:80:86
Other Information:
	SHA1 fingerprint:
		092bc59d51a8b81ac23f60ed012137150b2a1de9
	SHA256 fingerprint:
		0dc628553e23b51e1bf9a7e675ab125c25e012303190380b2e051755edd5f202
	Public Key ID:
		61a2322e0d8ee052349e140fb6b7e4c392871f85
	Public key's random art:
		+--[ RSA 2000]----+
		|  +              |
		| . = .           |
		|  = E o o        |
		| + X + o .       |
		|o X O   S        |
		|== * o           |
		|+oo .            |
		|..               |
		|                 |
		+-----------------+

-----BEGIN CERTIFICATE-----
MIIDzzCCAr6gAwIBAgIBATANBgkqhkiG9w0BAQsFADB+MSMwIQYDVQQDExpUTFMg
UG9vbCBUZXN0IFguNTA5IFNlcnZlcjEVMBMGA1UECxMMVGVzdCBTZXJ2ZXJzMRsw
GQYDVQQKExJBUlBBMiBMYWJvcmF0b3JpZXMxETAPBgNVBAcTCEludGVybmV0MRAw
DgYDVQQIEwdGcmVlZG9tMB4XDTE2MDcxMjIxMDIyMVoXDTE2MDkyMDIxMDIyMVow
fjEjMCEGA1UEAxMaVExTIFBvb2wgVGVzdCBYLjUwOSBTZXJ2ZXIxFTATBgNVBAsT
DFRlc3QgU2VydmVyczEbMBkGA1UEChMSQVJQQTIgTGFib3JhdG9yaWVzMREwDwYD
VQQHEwhJbnRlcm5ldDEQMA4GA1UECBMHRnJlZWRvbTCCARswDQYJKoZIhvcNAQEB
BQADggEIADCCAQMCgfsAwYMmeH5iudjZ+uD97Z5t/JSVBBNW20OZLjTv7NADaze9
bk69U1ehgzUA4eKoX1AjPbDh0XTczqas/j05IkbR7GHn2k6zo/vlVZm8jJTenrKx
00LnIoi00ifOOS3AK34AkLaHWuwMfxHjiUbrhI9XEoiYd3vMOc3KYArQHKtwXd+x
Id7kUG1pobCtULN93Cz5qbjBr8p43F53ovTtevLBAgK0vmy16xGu7+MachjJNt/i
9blefX/vXEdpvuao9fuZlyfyodcE7znhj/WPLd67mwxfOvbIKOaQzQVYKyqBzZUs
RziLKagSCrTckih+Ufc5ZuW4JsA3LlXH8wIDAQABo2YwZDAMBgNVHRMBAf8EAjAA
MCQGA1UdEQQdMBuBGXRlc3RzcnZAdGxzcG9vbC5hcnBhMi5sYWIwDwYDVR0PAQH/
BAUDAwegADAdBgNVHQ4EFgQUYaIyLg2O4FI0nhQPtrfkw5KHH4UwDQYJKoZIhvcN
AQELBQADgfsAVH47vhFYC9g2LHTUEnY2P69uSJMWKuTGirLSyq51sYEhETOR5LFK
Y3myYDEg7znTaXJGcy7dqJQWUw1QhMIvIxWA0vSHdjSH4mj0lwG57kwCBY1j+Sum
W7winfNVfzT4bl/TGq+ZU+WTFF+SpwyNF6bLJdxpDf3es59uw+CC0ElB2WNeqtOw
lfkIeJVuE0w9IVzw8cQWSgFk+dC3YvPU3AYcHcvMWnnTFC+3wENpOZZx1m+PMkgD
2OuU9EmVy41ZqlaO0t8ti0kinnvGHJvQiAOkx120dvrN2fVZ02NaTCFPXv6hZcLH
JYLgEl0T4daEY/6yCXo6S9KAhg==
-----END CERTIFICATE-----
