X.509 Certificate Information:
	Version: 3
	Serial Number (hex): 06
	Issuer: CN=TLS Pool Test Flying Signer,OU=On-the-fly Signing CA Certificate,O=ARPA2 Laboratories,L=Internet,ST=Freedom
	Validity:
		Not Before: Tue Jul 12 21:02:22 UTC 2016
		Not After: Tue Jun 12 21:02:22 UTC 2018
	Subject: CN=TLS Pool Test Flying Signer,OU=On-the-fly Signing CA Certificate,O=ARPA2 Laboratories,L=Internet,ST=Freedom
	Subject Public Key Algorithm: RSA
	Algorithm Security Level: Legacy (2000 bits)
		Modulus (bits 2000):
			00:ba:e8:22:79:25:43:0e:bc:2d:b2:21:7c:ea:17:11
			a9:d5:3d:56:6f:2a:36:85:e0:84:37:ee:6e:b8:bf:28
			0a:9e:fe:db:89:43:51:e1:53:8b:fc:58:71:71:bd:cd
			36:56:de:ed:80:67:21:96:d7:52:56:22:35:76:49:3b
			ca:09:f8:c5:65:e3:79:6e:a3:75:1e:06:10:2e:25:9b
			af:65:e7:ca:d7:62:ac:d0:f8:10:25:15:3e:23:dc:a9
			c8:42:e6:82:98:aa:02:fb:3c:3e:ec:ec:b6:93:78:91
			49:cc:fa:56:f5:6d:02:f4:ca:f6:c1:62:f3:95:16:41
			95:7e:f0:d7:bc:85:f5:99:88:96:8f:64:f1:b6:38:61
			56:ee:73:94:fa:4c:25:c8:33:39:8f:d4:41:e4:8f:af
			6b:6c:d5:5b:23:cc:a9:70:87:d7:34:ed:8b:c8:26:21
			a1:0f:fd:92:cd:23:98:98:6d:46:fa:13:ee:01:ad:7a
			c7:36:27:65:f9:9b:ee:00:dd:42:5e:5d:45:3c:a9:5a
			e4:6f:d8:e2:da:5b:61:b1:35:51:19:5e:f3:16:0b:98
			39:f4:11:67:2c:d4:af:c5:30:d4:1a:ce:df:8f:cc:19
			40:25:d8:0f:ac:c3:5f:01:2f:94:9b
		Exponent (bits 24):
			01:00:01
	Extensions:
		Basic Constraints (critical):
			Certificate Authority (CA): TRUE
		Subject Alternative Name (not critical):
			RFC822Name: flying-signer@@tlspool.arpa2.lab
		Key Usage (critical):
			Certificate signing.
		Subject Key Identifier (not critical):
			c7a5f5506cb2129617c71e2cea1024d58c0aac1d
	Signature Algorithm: RSA-SHA256
	Signature:
		a4:b8:d5:b7:76:67:03:26:b6:81:e8:aa:50:27:20:05
		6a:65:a3:4e:75:88:96:24:10:d1:84:17:1b:cd:01:11
		c1:fd:a1:20:84:c0:21:f4:3a:5d:fe:1d:97:fd:dd:16
		e2:4c:df:e8:21:c0:fc:82:54:14:57:e2:c4:ce:b6:1b
		68:44:02:dc:51:4c:f8:ea:82:9a:cc:45:55:d6:7b:4b
		71:6a:51:fb:51:fe:dc:f4:c5:fc:c2:e7:88:9f:71:74
		12:d0:a9:ec:7f:51:1f:1a:00:a2:4c:8a:34:e1:3b:77
		3b:3d:d1:f8:aa:80:b1:4b:9c:b8:11:83:5a:88:3d:b4
		ac:47:d4:7e:fd:53:8c:9f:6e:21:27:fc:8e:fb:8c:db
		a4:55:ad:1d:45:65:4a:78:56:76:e8:fc:37:f9:d1:ce
		60:34:27:25:59:a2:0a:ee:39:70:be:b2:26:c9:6c:f5
		db:89:90:ed:a7:b8:ee:0a:9f:70:01:75:87:83:16:dc
		3e:b4:29:6a:96:51:16:cd:b0:a6:70:40:2c:8e:45:10
		33:6d:5d:9a:64:f7:31:e0:7a:48:5a:15:ab:01:0d:76
		e0:a3:86:a0:e2:db:96:1d:73:d8:38:4d:db:be:d1:3f
		b3:d8:88:5b:04:2f:9a:45:bc:0c
Other Information:
	SHA1 fingerprint:
		28e7d2bb8dc09e044a62e41fab3c6c6f9f6809a2
	SHA256 fingerprint:
		f5adc4caee059c30111a1021a10b4f95304faa83e777f332507a8aaa7694ab5d
	Public Key ID:
		c7a5f5506cb2129617c71e2cea1024d58c0aac1d
	Public key's random art:
		+--[ RSA 2000]----+
		|   .  .oo+ ..=o  |
		|    E  .o * +o*  |
		|   o o . o ++* . |
		|  . . . ..o+.o.  |
		|        So+.  .  |
		|         ..      |
		|                 |
		|                 |
		|                 |
		+-----------------+

-----BEGIN CERTIFICATE-----
MIIEBzCCAvagAwIBAgIBBjANBgkqhkiG9w0BAQsFADCBlDEkMCIGA1UEAxMbVExT
IFBvb2wgVGVzdCBGbHlpbmcgU2lnbmVyMSowKAYDVQQLEyFPbi10aGUtZmx5IFNp
Z25pbmcgQ0EgQ2VydGlmaWNhdGUxGzAZBgNVBAoTEkFSUEEyIExhYm9yYXRvcmll
czERMA8GA1UEBxMISW50ZXJuZXQxEDAOBgNVBAgTB0ZyZWVkb20wHhcNMTYwNzEy
MjEwMjIyWhcNMTgwNjEyMjEwMjIyWjCBlDEkMCIGA1UEAxMbVExTIFBvb2wgVGVz
dCBGbHlpbmcgU2lnbmVyMSowKAYDVQQLEyFPbi10aGUtZmx5IFNpZ25pbmcgQ0Eg
Q2VydGlmaWNhdGUxGzAZBgNVBAoTEkFSUEEyIExhYm9yYXRvcmllczERMA8GA1UE
BxMISW50ZXJuZXQxEDAOBgNVBAgTB0ZyZWVkb20wggEbMA0GCSqGSIb3DQEBAQUA
A4IBCAAwggEDAoH7ALroInklQw68LbIhfOoXEanVPVZvKjaF4IQ37m64vygKnv7b
iUNR4VOL/Fhxcb3NNlbe7YBnIZbXUlYiNXZJO8oJ+MVl43luo3UeBhAuJZuvZefK
12Ks0PgQJRU+I9ypyELmgpiqAvs8PuzstpN4kUnM+lb1bQL0yvbBYvOVFkGVfvDX
vIX1mYiWj2TxtjhhVu5zlPpMJcgzOY/UQeSPr2ts1VsjzKlwh9c07YvIJiGhD/2S
zSOYmG1G+hPuAa16xzYnZfmb7gDdQl5dRTypWuRv2OLaW2GxNVEZXvMWC5g59BFn
LNSvxTDUGs7fj8wZQCXYD6zDXwEvlJsCAwEAAaNwMG4wDwYDVR0TAQH/BAUwAwEB
/zArBgNVHREEJDAigSBmbHlpbmctc2lnbmVyQEB0bHNwb29sLmFycGEyLmxhYjAP
BgNVHQ8BAf8EBQMDBwQAMB0GA1UdDgQWBBTHpfVQbLISlhfHHizqECTVjAqsHTAN
BgkqhkiG9w0BAQsFAAOB+wCkuNW3dmcDJraB6KpQJyAFamWjTnWIliQQ0YQXG80B
EcH9oSCEwCH0Ol3+HZf93RbiTN/oIcD8glQUV+LEzrYbaEQC3FFM+OqCmsxFVdZ7
S3FqUftR/tz0xfzC54ifcXQS0Knsf1EfGgCiTIo04Tt3Oz3R+KqAsUucuBGDWog9
tKxH1H79U4yfbiEn/I77jNukVa0dRWVKeFZ26Pw3+dHOYDQnJVmiCu45cL6yJsls
9duJkO2nuO4Kn3ABdYeDFtw+tClqllEWzbCmcEAsjkUQM21dmmT3MeB6SFoVqwEN
duCjhqDi25Ydc9g4Tdu+0T+z2IhbBC+aRbwM
-----END CERTIFICATE-----
