X.509 Certificate Information:
	Version: 3
	Serial Number (hex): 01
	Issuer: CN=TLS Pool Test X.509 Client,OU=Test Clients,O=ARPA2 Laboratories,L=Internet,ST=Freedom
	Validity:
		Not Before: Tue Jul 12 21:02:21 UTC 2016
		Not After: Tue Sep 20 21:02:21 UTC 2016
	Subject: CN=TLS Pool Test X.509 Client,OU=Test Clients,O=ARPA2 Laboratories,L=Internet,ST=Freedom
	Subject Public Key Algorithm: RSA
	Algorithm Security Level: Legacy (2000 bits)
		Modulus (bits 2000):
			00:df:a9:be:c1:0f:61:15:bc:14:68:03:bc:52:93:c9
			e5:23:64:2a:74:3e:a9:b6:87:20:f2:cf:d9:ea:4f:45
			a6:a2:23:88:9f:a9:ee:cc:92:de:6f:a5:f4:85:e8:a2
			81:65:28:54:3a:7e:42:9c:1b:02:da:0a:92:97:52:7d
			30:dc:59:a9:76:83:9c:08:76:c7:fa:6b:4a:51:26:66
			27:14:76:62:a1:44:f1:0e:4b:a8:31:e9:5d:c7:2f:ff
			a1:01:7e:17:59:b6:00:79:41:17:39:a6:6d:c4:1d:76
			56:7e:92:a9:4f:21:eb:5e:a2:f7:e5:79:d8:97:bb:d9
			b7:a7:59:fd:e3:fe:0a:3e:0c:f3:61:5a:c4:ab:1b:5d
			2d:c3:da:be:ef:17:59:de:62:a3:aa:96:cf:72:7c:66
			5d:5f:18:b2:39:bd:3c:a6:e0:7d:64:c7:e3:81:0f:be
			d8:f5:ef:f6:a6:b3:8e:87:5c:25:df:6d:4d:b6:af:a1
			25:84:0f:70:d1:90:4f:d8:3e:97:b8:67:b6:18:45:c6
			18:53:1c:b8:98:19:bb:50:f9:56:0b:e8:79:03:bb:2f
			c5:e4:00:6e:51:6a:3c:0f:ee:f1:35:e5:17:ed:c2:de
			83:0b:98:0f:5e:32:f6:9a:27:5e:3b
		Exponent (bits 24):
			01:00:01
	Extensions:
		Basic Constraints (critical):
			Certificate Authority (CA): FALSE
		Subject Alternative Name (not critical):
			RFC822Name: testcli@tlspool.arpa2.lab
		Key Usage (critical):
			Digital signature.
			Key encipherment.
		Subject Key Identifier (not critical):
			1a71eb7ce0085210e6854034d24645dc2e6b8bdc
	Signature Algorithm: RSA-SHA256
	Signature:
		d7:f8:82:b8:85:84:45:22:31:70:33:b1:5b:d5:ef:62
		4d:44:f5:11:5b:70:21:4c:a9:39:59:f2:d7:0e:ec:45
		5a:3a:0c:34:20:a1:4a:96:58:d8:a8:2e:2e:e6:02:e7
		fc:86:ad:73:a7:d5:c1:3d:dd:6b:33:fd:23:6c:02:55
		ea:c3:1d:1e:46:d1:10:e9:99:53:0a:5f:3d:2c:da:26
		a7:ba:8e:2f:58:f2:e2:da:b8:cc:8d:ab:33:b9:02:9f
		6a:55:93:04:fa:36:b8:96:3a:77:d8:45:6b:a5:35:5d
		52:8a:56:0e:0c:df:6e:c2:5f:b9:16:0c:da:de:50:94
		96:1b:26:2e:36:77:71:df:f1:b5:cc:18:83:e0:07:3d
		d4:07:2e:ee:66:35:ef:26:76:91:4b:1f:1c:68:00:55
		ee:a5:6c:15:12:55:01:c3:a2:55:04:21:77:9b:64:f6
		1a:a6:d2:c0:58:55:e8:03:e2:cb:0d:0b:90:e8:d0:59
		03:61:98:4f:82:4c:81:d3:0f:4d:8e:c1:07:f7:ef:7c
		f8:0d:48:93:05:e0:61:f9:68:8b:05:ba:e3:0f:e3:ae
		5a:fb:53:c6:40:78:95:5f:bc:a7:38:17:24:9e:0a:1d
		1a:a5:57:1b:fb:7f:37:59:ad:ee
Other Information:
	SHA1 fingerprint:
		ab18bf1151ec977a76e4be2a718719f41f421acf
	SHA256 fingerprint:
		bc142ea3535315b385963acb58d9a19335a04c6d8ea59de12c880f73cde46e24
	Public Key ID:
		1a71eb7ce0085210e6854034d24645dc2e6b8bdc
	Public key's random art:
		+--[ RSA 2000]----+
		|=B=*+.           |
		|.o=o. .          |
		| .. ... .        |
		|   .. .o .       |
		|  . .o. S        |
		|   .o. B .       |
		| . + .o + .      |
		|  o E    .       |
		|                 |
		+-----------------+

-----BEGIN CERTIFICATE-----
MIIDzzCCAr6gAwIBAgIBATANBgkqhkiG9w0BAQsFADB+MSMwIQYDVQQDExpUTFMg
UG9vbCBUZXN0IFguNTA5IENsaWVudDEVMBMGA1UECxMMVGVzdCBDbGllbnRzMRsw
GQYDVQQKExJBUlBBMiBMYWJvcmF0b3JpZXMxETAPBgNVBAcTCEludGVybmV0MRAw
DgYDVQQIEwdGcmVlZG9tMB4XDTE2MDcxMjIxMDIyMVoXDTE2MDkyMDIxMDIyMVow
fjEjMCEGA1UEAxMaVExTIFBvb2wgVGVzdCBYLjUwOSBDbGllbnQxFTATBgNVBAsT
DFRlc3QgQ2xpZW50czEbMBkGA1UEChMSQVJQQTIgTGFib3JhdG9yaWVzMREwDwYD
VQQHEwhJbnRlcm5ldDEQMA4GA1UECBMHRnJlZWRvbTCCARswDQYJKoZIhvcNAQEB
BQADggEIADCCAQMCgfsA36m+wQ9hFbwUaAO8UpPJ5SNkKnQ+qbaHIPLP2epPRaai
I4ifqe7Mkt5vpfSF6KKBZShUOn5CnBsC2gqSl1J9MNxZqXaDnAh2x/prSlEmZicU
dmKhRPEOS6gx6V3HL/+hAX4XWbYAeUEXOaZtxB12Vn6SqU8h616i9+V52Je72ben
Wf3j/go+DPNhWsSrG10tw9q+7xdZ3mKjqpbPcnxmXV8Ysjm9PKbgfWTH44EPvtj1
7/ams46HXCXfbU22r6ElhA9w0ZBP2D6XuGe2GEXGGFMcuJgZu1D5VgvoeQO7L8Xk
AG5RajwP7vE15Rftwt6DC5gPXjL2mideOwIDAQABo2YwZDAMBgNVHRMBAf8EAjAA
MCQGA1UdEQQdMBuBGXRlc3RjbGlAdGxzcG9vbC5hcnBhMi5sYWIwDwYDVR0PAQH/
BAUDAwegADAdBgNVHQ4EFgQUGnHrfOAIUhDmhUA00kZF3C5ri9wwDQYJKoZIhvcN
AQELBQADgfsA1/iCuIWERSIxcDOxW9XvYk1E9RFbcCFMqTlZ8tcO7EVaOgw0IKFK
lljYqC4u5gLn/Iatc6fVwT3dazP9I2wCVerDHR5G0RDpmVMKXz0s2ianuo4vWPLi
2rjMjaszuQKfalWTBPo2uJY6d9hFa6U1XVKKVg4M327CX7kWDNreUJSWGyYuNndx
3/G1zBiD4Ac91Acu7mY17yZ2kUsfHGgAVe6lbBUSVQHDolUEIXebZPYaptLAWFXo
A+LLDQuQ6NBZA2GYT4JMgdMPTY7BB/fvfPgNSJMF4GH5aIsFuuMP465a+1PGQHiV
X7ynOBckngodGqVXG/t/N1mt7g==
-----END CERTIFICATE-----
