X.509 Certificate Information:
	Version: 3
	Serial Number (hex): 01
	Issuer: CN=TLS Pool Test CA,OU=Testing Unit,O=ARPA2 Laboratories,L=Internet,ST=Freedom
	Validity:
		Not Before: Tue Jul 12 21:02:21 UTC 2016
		Not After: Tue Jun 12 21:02:21 UTC 2018
	Subject: CN=TLS Pool Test CA,OU=Testing Unit,O=ARPA2 Laboratories,L=Internet,ST=Freedom
	Subject Public Key Algorithm: RSA
	Algorithm Security Level: Legacy (2000 bits)
		Modulus (bits 2000):
			00:c1:41:09:da:cf:40:c4:83:82:e9:d7:17:76:37:97
			b4:dd:37:58:ac:38:19:25:3f:ba:f6:17:bd:c8:c8:29
			4d:e3:3e:5f:4d:24:b9:f6:6e:97:ce:a1:34:a5:cb:ee
			b6:e5:9c:a8:9a:fe:38:98:f6:a1:ae:5d:40:77:44:f9
			cd:b5:d6:8b:80:60:4f:65:1a:c8:ff:63:69:0e:5d:38
			05:3d:98:a4:ca:a7:5d:ca:3a:34:36:9e:3d:63:a3:88
			31:a3:3d:c4:ef:94:5d:16:0e:8c:8c:bf:be:04:00:ca
			19:07:23:67:26:80:8f:6c:51:ca:be:57:bb:52:02:cf
			be:b4:ba:36:61:d9:39:c1:2a:d2:ea:73:7c:52:72:5c
			35:8a:41:10:bb:0a:a0:5f:39:c9:29:0c:ab:c6:34:19
			be:19:00:f8:99:d1:c0:2e:25:fa:a9:23:b5:c1:9e:11
			57:ba:be:97:0d:a0:51:53:93:8e:cf:de:26:47:66:0a
			fe:e6:8b:48:ab:4b:2e:68:09:ae:f4:1f:a8:b6:5e:64
			35:94:43:26:d7:a2:89:f7:12:75:f9:1d:5b:16:87:df
			ea:eb:38:de:49:a5:e4:b1:1f:4b:29:e4:b5:ff:f6:b7
			2b:5e:bf:2f:47:95:d7:7c:76:74:6b
		Exponent (bits 24):
			01:00:01
	Extensions:
		Basic Constraints (critical):
			Certificate Authority (CA): TRUE
		Subject Alternative Name (not critical):
			RFC822Name: testca@@tlspool.arpa2.lab
		Key Purpose (not critical):
			OCSP signing.
		Key Usage (critical):
			Certificate signing.
			CRL signing.
		Subject Key Identifier (not critical):
			147013e212671efaf470758f53c557311b10e83a
	Signature Algorithm: RSA-SHA256
	Signature:
		3b:71:d2:b2:e6:96:96:65:88:82:85:c4:a7:80:7f:44
		ee:f7:70:e0:27:40:cb:7e:d3:b2:9a:d2:0a:e0:29:97
		42:1c:89:cd:3f:6d:7d:4c:05:26:0f:93:56:88:e5:a0
		84:eb:53:03:dd:c0:0e:3f:58:35:6a:ce:83:c5:50:ec
		77:8f:ae:83:38:8b:26:eb:18:d4:5e:bc:17:ce:50:b5
		c1:23:3f:25:54:50:ab:0b:52:99:18:3b:44:1c:bd:65
		99:d4:2b:95:81:2c:23:38:ef:02:c9:51:af:50:e2:32
		3a:21:90:f1:b1:4a:e3:70:d0:c6:1a:ad:ac:67:e8:2d
		0d:ef:0a:dc:fc:2f:4d:18:3b:1d:ac:7c:28:02:70:90
		0f:ef:97:f7:19:05:51:5b:ed:53:43:1d:ca:9f:d6:8b
		fb:c3:a0:7a:b2:59:0b:17:01:a1:38:4b:0e:13:f9:83
		bb:d4:27:14:f1:bb:2f:9a:c2:7a:48:c3:2e:8d:62:bf
		2a:53:e2:c0:e5:b9:52:9d:0f:d7:5e:52:e3:e6:69:f8
		f2:08:6d:8e:69:23:99:9f:02:dd:5b:10:7f:79:9c:dd
		05:82:f4:a8:53:3b:f4:25:9c:80:39:00:28:5f:6e:c1
		30:a2:8b:39:fa:83:fb:97:7f:e7
Other Information:
	SHA1 fingerprint:
		0499829360dbd03fd2926c9e68f35e4eba94d59c
	SHA256 fingerprint:
		95cf627c360c882c276e473ac2b10209e62c5e1af5860c7661512d305bf7ee99
	Public Key ID:
		147013e212671efaf470758f53c557311b10e83a
	Public key's random art:
		+--[ RSA 2000]----+
		|    . *.=.. oo+*=|
		|     B + + o +  *|
		|    o = o . o ...|
		|     + =   . .   |
		|      . S .      |
		|         E       |
		|          .      |
		|                 |
		|                 |
		+-----------------+

-----BEGIN CERTIFICATE-----
MIID0zCCAsKgAwIBAgIBATANBgkqhkiG9w0BAQsFADB0MRkwFwYDVQQDExBUTFMg
UG9vbCBUZXN0IENBMRUwEwYDVQQLEwxUZXN0aW5nIFVuaXQxGzAZBgNVBAoTEkFS
UEEyIExhYm9yYXRvcmllczERMA8GA1UEBxMISW50ZXJuZXQxEDAOBgNVBAgTB0Zy
ZWVkb20wHhcNMTYwNzEyMjEwMjIxWhcNMTgwNjEyMjEwMjIxWjB0MRkwFwYDVQQD
ExBUTFMgUG9vbCBUZXN0IENBMRUwEwYDVQQLEwxUZXN0aW5nIFVuaXQxGzAZBgNV
BAoTEkFSUEEyIExhYm9yYXRvcmllczERMA8GA1UEBxMISW50ZXJuZXQxEDAOBgNV
BAgTB0ZyZWVkb20wggEbMA0GCSqGSIb3DQEBAQUAA4IBCAAwggEDAoH7AMFBCdrP
QMSDgunXF3Y3l7TdN1isOBklP7r2F73IyClN4z5fTSS59m6XzqE0pcvutuWcqJr+
OJj2oa5dQHdE+c211ouAYE9lGsj/Y2kOXTgFPZikyqddyjo0Np49Y6OIMaM9xO+U
XRYOjIy/vgQAyhkHI2cmgI9sUcq+V7tSAs++tLo2Ydk5wSrS6nN8UnJcNYpBELsK
oF85ySkMq8Y0Gb4ZAPiZ0cAuJfqpI7XBnhFXur6XDaBRU5OOz94mR2YK/uaLSKtL
LmgJrvQfqLZeZDWUQybXoon3EnX5HVsWh9/q6zjeSaXksR9LKeS1//a3K16/L0eV
13x2dGsCAwEAAaN+MHwwDwYDVR0TAQH/BAUwAwEB/zAkBgNVHREEHTAbgRl0ZXN0
Y2FAQHRsc3Bvb2wuYXJwYTIubGFiMBMGA1UdJQQMMAoGCCsGAQUFBwMJMA8GA1Ud
DwEB/wQFAwMHBgAwHQYDVR0OBBYEFBRwE+ISZx769HB1j1PFVzEbEOg6MA0GCSqG
SIb3DQEBCwUAA4H7ADtx0rLmlpZliIKFxKeAf0Tu93DgJ0DLftOymtIK4CmXQhyJ
zT9tfUwFJg+TVojloITrUwPdwA4/WDVqzoPFUOx3j66DOIsm6xjUXrwXzlC1wSM/
JVRQqwtSmRg7RBy9ZZnUK5WBLCM47wLJUa9Q4jI6IZDxsUrjcNDGGq2sZ+gtDe8K
3PwvTRg7Hax8KAJwkA/vl/cZBVFb7VNDHcqf1ov7w6B6slkLFwGhOEsOE/mDu9Qn
FPG7L5rCekjDLo1ivypT4sDluVKdD9deUuPmafjyCG2OaSOZnwLdWxB/eZzdBYL0
qFM79CWcgDkAKF9uwTCiizn6g/uXf+c=
-----END CERTIFICATE-----
